; ModuleID = '23/986.c'
source_filename = "23/986.c"
target datalayout = "e-m:e-p270:32:32-p271:32:32-p272:64:64-i64:64-f80:128-n8:16:32:64-S128"
target triple = "x86_64-pc-linux-gnu"

@.str = private unnamed_addr constant [3 x i8] c"%c\00", align 1
@.str.1 = private unnamed_addr constant [2 x i8] c" \00", align 1

; Function Attrs: noinline nounwind uwtable
define dso_local i32 @main() #0 {
  %1 = alloca i32, align 4
  %2 = alloca [101 x i8], align 16
  %3 = alloca i8*, align 8
  %4 = alloca i8*, align 8
  %5 = alloca i8*, align 8
  store i32 0, i32* %1, align 4
  %6 = getelementptr inbounds [101 x i8], [101 x i8]* %2, i64 0, i64 0
  %7 = call i32 (i8*, ...) bitcast (i32 (...)* @gets to i32 (i8*, ...)*)(i8* %6)
  %8 = getelementptr inbounds [101 x i8], [101 x i8]* %2, i64 0, i64 0
  store i8* %8, i8** %3, align 8
  br label %9

9:                                                ; preds = %15, %0
  %10 = load i8*, i8** %3, align 8
  %11 = load i8, i8* %10, align 1
  %12 = sext i8 %11 to i32
  %13 = icmp ne i32 %12, 0
  br i1 %13, label %14, label %18

14:                                               ; preds = %9
  br label %15

15:                                               ; preds = %14
  %16 = load i8*, i8** %3, align 8
  %17 = getelementptr inbounds i8, i8* %16, i32 1
  store i8* %17, i8** %3, align 8
  br label %9

18:                                               ; preds = %9
  %19 = load i8*, i8** %3, align 8
  store i8* %19, i8** %4, align 8
  br label %20

20:                                               ; preds = %75, %18
  %21 = load i8*, i8** %3, align 8
  %22 = getelementptr inbounds i8, i8* %21, i32 -1
  store i8* %22, i8** %3, align 8
  br label %23

23:                                               ; preds = %34, %20
  %24 = load i8*, i8** %3, align 8
  %25 = load i8, i8* %24, align 1
  %26 = sext i8 %25 to i32
  %27 = icmp ne i32 %26, 32
  br i1 %27, label %28, label %32

28:                                               ; preds = %23
  %29 = load i8*, i8** %3, align 8
  %30 = getelementptr inbounds [101 x i8], [101 x i8]* %2, i64 0, i64 0
  %31 = icmp ugt i8* %29, %30
  br label %32

32:                                               ; preds = %28, %23
  %33 = phi i1 [ false, %23 ], [ %31, %28 ]
  br i1 %33, label %34, label %37

34:                                               ; preds = %32
  %35 = load i8*, i8** %3, align 8
  %36 = getelementptr inbounds i8, i8* %35, i32 -1
  store i8* %36, i8** %3, align 8
  br label %23

37:                                               ; preds = %32
  %38 = load i8*, i8** %3, align 8
  %39 = getelementptr inbounds [101 x i8], [101 x i8]* %2, i64 0, i64 0
  %40 = icmp ne i8* %38, %39
  br i1 %40, label %41, label %58

41:                                               ; preds = %37
  %42 = load i8*, i8** %3, align 8
  %43 = getelementptr inbounds i8, i8* %42, i64 1
  store i8* %43, i8** %5, align 8
  br label %44

44:                                               ; preds = %53, %41
  %45 = load i8*, i8** %5, align 8
  %46 = load i8*, i8** %4, align 8
  %47 = icmp ult i8* %45, %46
  br i1 %47, label %48, label %56

48:                                               ; preds = %44
  %49 = load i8*, i8** %5, align 8
  %50 = load i8, i8* %49, align 1
  %51 = sext i8 %50 to i32
  %52 = call i32 (i8*, ...) @printf(i8* getelementptr inbounds ([3 x i8], [3 x i8]* @.str, i64 0, i64 0), i32 %51)
  br label %53

53:                                               ; preds = %48
  %54 = load i8*, i8** %5, align 8
  %55 = getelementptr inbounds i8, i8* %54, i32 1
  store i8* %55, i8** %5, align 8
  br label %44

56:                                               ; preds = %44
  %57 = call i32 (i8*, ...) @printf(i8* getelementptr inbounds ([2 x i8], [2 x i8]* @.str.1, i64 0, i64 0))
  br label %73

58:                                               ; preds = %37
  %59 = load i8*, i8** %3, align 8
  store i8* %59, i8** %5, align 8
  br label %60

60:                                               ; preds = %69, %58
  %61 = load i8*, i8** %5, align 8
  %62 = load i8*, i8** %4, align 8
  %63 = icmp ult i8* %61, %62
  br i1 %63, label %64, label %72

64:                                               ; preds = %60
  %65 = load i8*, i8** %5, align 8
  %66 = load i8, i8* %65, align 1
  %67 = sext i8 %66 to i32
  %68 = call i32 (i8*, ...) @printf(i8* getelementptr inbounds ([3 x i8], [3 x i8]* @.str, i64 0, i64 0), i32 %67)
  br label %69

69:                                               ; preds = %64
  %70 = load i8*, i8** %5, align 8
  %71 = getelementptr inbounds i8, i8* %70, i32 1
  store i8* %71, i8** %5, align 8
  br label %60

72:                                               ; preds = %60
  br label %73

73:                                               ; preds = %72, %56
  %74 = load i8*, i8** %3, align 8
  store i8* %74, i8** %4, align 8
  br label %75

75:                                               ; preds = %73
  %76 = load i8*, i8** %3, align 8
  %77 = getelementptr inbounds [101 x i8], [101 x i8]* %2, i64 0, i64 0
  %78 = icmp ugt i8* %76, %77
  br i1 %78, label %20, label %79

79:                                               ; preds = %75
  ret i32 0
}

declare dso_local i32 @gets(...) #1

declare dso_local i32 @printf(i8*, ...) #1


!llvm.module.flags = !{!0}
!llvm.ident = !{!1}

!0 = !{i32 1, !"wchar_size", i32 4}
!1 = !{!"clang version 10.0.0-4ubuntu1 "}
