; ModuleID = 'source-C-CXX/22/986.c'
source_filename = "source-C-CXX/22/986.c"
target datalayout = "e-m:e-p270:32:32-p271:32:32-p272:64:64-i64:64-f80:128-n8:16:32:64-S128"
target triple = "x86_64-pc-linux-gnu"

; Function Attrs: nounwind sspstrong uwtable
define dso_local i32 @main() local_unnamed_addr #0 {
  %1 = alloca [101 x i8], align 16
  %2 = getelementptr inbounds [101 x i8], [101 x i8]* %1, i64 0, i64 0
  call void @llvm.lifetime.start.p0i8(i64 101, i8* nonnull %2) #4
  %3 = call i32 (i8*, ...) bitcast (i32 (...)* @gets to i32 (i8*, ...)*)(i8* nonnull %2) #4
  br label %4

4:                                                ; preds = %4, %0
  %5 = phi i64 [ 0, %0 ], [ %9, %4 ]
  %6 = getelementptr inbounds [101 x i8], [101 x i8]* %1, i64 0, i64 %5
  %7 = load i8, i8* %6, align 1, !tbaa !5
  %8 = icmp eq i8 %7, 0
  %9 = add nuw nsw i64 %5, 1
  br i1 %8, label %10, label %4, !llvm.loop !8

10:                                               ; preds = %4, %45
  %11 = phi i64 [ %14, %45 ], [ %5, %4 ]
  br label %12

12:                                               ; preds = %12, %10
  %13 = phi i64 [ %11, %10 ], [ %14, %12 ]
  %14 = add nsw i64 %13, -1
  %15 = getelementptr inbounds [101 x i8], [101 x i8]* %1, i64 0, i64 %14
  %16 = load i8, i8* %15, align 1, !tbaa !5
  %17 = icmp ne i8 %16, 32
  %18 = icmp sgt i64 %13, 1
  %19 = select i1 %17, i1 %18, i1 false
  br i1 %19, label %12, label %20, !llvm.loop !10

20:                                               ; preds = %12
  %21 = getelementptr inbounds [101 x i8], [101 x i8]* %1, i64 0, i64 %11
  %22 = icmp eq i64 %14, 0
  br i1 %22, label %27, label %23

23:                                               ; preds = %20
  %24 = icmp slt i64 %13, %11
  br i1 %24, label %25, label %36

25:                                               ; preds = %23
  %26 = getelementptr inbounds [101 x i8], [101 x i8]* %1, i64 0, i64 %13
  br label %29

27:                                               ; preds = %20
  %28 = icmp sgt i64 %13, %11
  br i1 %28, label %45, label %38

29:                                               ; preds = %25, %29
  %30 = phi i8* [ %34, %29 ], [ %26, %25 ]
  %31 = load i8, i8* %30, align 1, !tbaa !5
  %32 = sext i8 %31 to i32
  %33 = call i32 @putchar(i32 %32)
  %34 = getelementptr inbounds i8, i8* %30, i64 1
  %35 = icmp ult i8* %34, %21
  br i1 %35, label %29, label %36, !llvm.loop !11

36:                                               ; preds = %29, %23
  %37 = call i32 @putchar(i32 32)
  br label %45

38:                                               ; preds = %27, %38
  %39 = phi i8* [ %43, %38 ], [ %2, %27 ]
  %40 = load i8, i8* %39, align 1, !tbaa !5
  %41 = sext i8 %40 to i32
  %42 = call i32 @putchar(i32 %41)
  %43 = getelementptr inbounds i8, i8* %39, i64 1
  %44 = icmp ult i8* %43, %21
  br i1 %44, label %38, label %45, !llvm.loop !12

45:                                               ; preds = %38, %27, %36
  br i1 %18, label %10, label %46, !llvm.loop !13

46:                                               ; preds = %45
  call void @llvm.lifetime.end.p0i8(i64 101, i8* nonnull %2) #4
  ret i32 0
}

; Function Attrs: argmemonly mustprogress nofree nosync nounwind willreturn
declare void @llvm.lifetime.start.p0i8(i64 immarg, i8* nocapture) #1

declare i32 @gets(...) local_unnamed_addr #2

; Function Attrs: argmemonly mustprogress nofree nosync nounwind willreturn
declare void @llvm.lifetime.end.p0i8(i64 immarg, i8* nocapture) #1

; Function Attrs: nofree nounwind
declare noundef i32 @putchar(i32 noundef) local_unnamed_addr #3


!llvm.module.flags = !{!0, !1, !2, !3}
!llvm.ident = !{!4}

!0 = !{i32 1, !"wchar_size", i32 4}
!1 = !{i32 7, !"PIC Level", i32 2}
!2 = !{i32 7, !"PIE Level", i32 2}
!3 = !{i32 7, !"uwtable", i32 1}
!4 = !{!"clang version 13.0.0"}
!5 = !{!6, !6, i64 0}
!6 = !{!"omnipotent char", !7, i64 0}
!7 = !{!"Simple C/C++ TBAA"}
!8 = distinct !{!8, !9}
!9 = !{!"llvm.loop.mustprogress"}
!10 = distinct !{!10, !9}
!11 = distinct !{!11, !9}
!12 = distinct !{!12, !9}
!13 = distinct !{!13, !9}
